target datalayout = "e-m:e-p270:32:32-p271:32:32-p272:64:64-i64:64-i128:128-f80:128-n8:16:32:64-S128"
target triple = "x86_64-pc-linux-gnu"

%struct.ssl_st = type { i32, ptr, ptr, ptr, %struct.CRYPTO_REF_COUNT, ptr, %struct.crypto_ex_data_st }
%struct.CRYPTO_REF_COUNT = type { i32 }
%struct.crypto_ex_data_st = type { ptr, ptr }
%struct.ssl_connection_st = type { %struct.ssl_st, ptr, i32, ptr, ptr, ptr, i32, ptr, i32, i32, i32, i32, %struct.OSSL_TIME, %struct.OSSL_TIME, %struct.ossl_statem_st, i32, ptr, ptr, i64, i64, i64, %struct.ossl_quic_tls_callbacks_st, ptr, ptr, %struct.anon, ptr, ptr, ptr, i32, ptr, %struct.ssl_dane_st, ptr, ptr, ptr, ptr, i32, [64 x i8], [64 x i8], [64 x i8], [64 x i8], [64 x i8], [64 x i8], [64 x i8], [64 x i8], [64 x i8], [64 x i8], [64 x i8], [64 x i8], ptr, [64 x i8], i64, i32, i64, [32 x i8], ptr, ptr, ptr, i64, ptr, [32 x i8], i64, i32, ptr, ptr, i32, i32, ptr, ptr, ptr, ptr, ptr, i64, ptr, ptr, i64, i32, i32, i32, i64, i32, i32, i64, i64, i64, %struct.anon.1, ptr, i32, ptr, ptr, ptr, i32, ptr, ptr, ptr, i32, i32, i32, i32, ptr, i64, i32, ptr, %struct.srp_ctx_st, ptr, %struct.record_layer_st, ptr, ptr, ptr, ptr, i64, i32, i32, i32, i64, i64, i64, ptr, ptr, ptr, ptr, ptr, i64, ptr, i64, ptr, i64 }
%struct.OSSL_TIME = type { i64 }
%struct.ossl_statem_st = type { i32, i32, i32, i32, i32, i32, i32, i32, i32, i32, i32, i32, i32, ptr, ptr, ptr, i8 }
%struct.ossl_quic_tls_callbacks_st = type { ptr, ptr, ptr, ptr, ptr, ptr }
%struct.anon = type { i64, [32 x i8], [32 x i8], ptr, ptr, i32, i32, i32, i32, [2 x i8], i32, i32, i32, i32, %struct.anon.0, [64 x i8], i64, [64 x i8], i64, i32, i32, ptr, i64, ptr, i64, i32, i8, i8, i16, ptr, i16 }
%struct.anon.0 = type { [128 x i8], i64, [128 x i8], i64, i64, i32, ptr, ptr, [4 x ptr], [4 x i16], i64, i32, ptr, i64, ptr, i64, ptr, ptr, ptr, i32, i64, ptr, i32, ptr, i64, ptr, i64, ptr, i64, ptr, ptr, ptr, ptr, i64, i64, ptr, ptr, i32, i32, i32, i32 }
%struct.ssl_dane_st = type { ptr, ptr, ptr, ptr, ptr, i32, i32, i32, i64 }
%struct.anon.1 = type { [29 x i8], ptr, ptr, ptr, i32, ptr, i16, i32, %struct.anon.2, i32, i32, i64, ptr, i64, ptr, i64, ptr, i64, ptr, i64, ptr, i64, ptr, ptr, ptr, ptr, ptr, ptr, ptr, i64, ptr, i64, i32, i32, i32, i32, ptr, i64, i32, i8, i32, [4 x i32], i32, i8, i8, i8, i8 }
%struct.anon.2 = type { ptr, ptr, ptr, i64 }
%struct.srp_ctx_st = type { ptr, ptr, ptr, ptr, ptr, ptr, ptr, ptr, ptr, ptr, ptr, ptr, ptr, ptr, i32, i64 }
%struct.record_layer_st = type { ptr, ptr, ptr, ptr, ptr, ptr, ptr, ptr, i64, i32, i64, [4 x i8], i64, i64, i8, ptr, i32, ptr, ptr, ptr, i64, i64, i64, i64, [32 x %struct.tls_record_st] }
%struct.tls_record_st = type { ptr, i32, i8, ptr, ptr, i64, i64, i16, [8 x i8] }
%struct.ssl_ctx_st = type { ptr, ptr, ptr, ptr, ptr, ptr, ptr, i64, ptr, ptr, i32, %struct.OSSL_TIME, ptr, ptr, ptr, %struct.anon.3, %struct.CRYPTO_REF_COUNT, ptr, ptr, ptr, ptr, ptr, ptr, ptr, ptr, ptr, %struct.crypto_ex_data_st, ptr, ptr, ptr, ptr, ptr, ptr, ptr, i64, i32, i32, i32, i64, ptr, ptr, i32, ptr, ptr, i32, i64, [32 x i8], ptr, ptr, ptr, i32, ptr, ptr, ptr, i64, i64, i64, i64, ptr, ptr, ptr, ptr, ptr, %struct.anon.4, ptr, ptr, ptr, ptr, %struct.srp_ctx_st, %struct.dane_ctx_st, ptr, ptr, ptr, ptr, i32, i32, ptr, ptr, i64, i64, ptr, ptr, ptr, i64, ptr, ptr, i32, ptr, ptr, ptr, [14 x i32], [24 x ptr], [14 x ptr], [14 x i64], i64, ptr, ptr, ptr, i64, i64, ptr, i64, i64, i32, i32, i32, i32, ptr, i64, ptr, i64, i64, ptr, ptr }
%struct.anon.3 = type { i32, i32, i32, i32, i32, i32, i32, i32, i32, i32, i32 }
%struct.anon.4 = type { ptr, ptr, [16 x i8], ptr, ptr, ptr, ptr, ptr, i32, i8, i64, ptr, i64, ptr, i64, ptr, i64, ptr, ptr, i64, ptr, ptr, ptr, i64, ptr, ptr, ptr, ptr, [32 x i8] }
%struct.dane_ctx_st = type { ptr, ptr, i8, i64 }

@.str = private unnamed_addr constant [25 x i8] c"../openssl/ssl/ssl_rsa.c\00", align 1
@__func__.SSL_use_PrivateKey = private unnamed_addr constant [19 x i8] c"SSL_use_PrivateKey\00", align 1
@__func__.SSL_use_PrivateKey_file = private unnamed_addr constant [24 x i8] c"SSL_use_PrivateKey_file\00", align 1

; Function Attrs: nounwind uwtable
define i32 @SSL_use_PrivateKey(ptr noundef %0, ptr noundef %1) #0 {
  %3 = alloca i32, align 4
  %4 = alloca ptr, align 8
  %5 = alloca ptr, align 8
  %6 = alloca i32, align 4
  %7 = alloca ptr, align 8
  %8 = alloca i32, align 4
  store ptr %0, ptr %4, align 8, !tbaa !3
  store ptr %1, ptr %5, align 8, !tbaa !77
  call void @llvm.lifetime.start.p0(i64 4, ptr %6) #6
  call void @llvm.lifetime.start.p0(i64 8, ptr %7) #6
  %9 = load ptr, ptr %4, align 8, !tbaa !3
  %10 = icmp eq ptr %9, null
  br i1 %10, label %11, label %12

11:                                               ; preds = %2
  br label %33

12:                                               ; preds = %2
  %13 = load ptr, ptr %4, align 8, !tbaa !3
  %14 = getelementptr inbounds nuw %struct.ssl_st, ptr %13, i32 0, i32 0
  %15 = load i32, ptr %14, align 8, !tbaa !10
  %16 = icmp eq i32 %15, 0
  br i1 %16, label %17, label %19

17:                                               ; preds = %12
  %18 = load ptr, ptr %4, align 8, !tbaa !3
  br label %31

19:                                               ; preds = %12
  %20 = load ptr, ptr %4, align 8, !tbaa !3
  %21 = getelementptr inbounds nuw %struct.ssl_st, ptr %20, i32 0, i32 0
  %22 = load i32, ptr %21, align 8, !tbaa !10
  %23 = and i32 %22, 128
  %24 = icmp ne i32 %23, 0
  br i1 %24, label %25, label %28

25:                                               ; preds = %19
  %26 = load ptr, ptr %4, align 8, !tbaa !3
  %27 = call ptr @ossl_quic_obj_get0_handshake_layer(ptr noundef %26)
  br label %29

28:                                               ; preds = %19
  br label %29

29:                                               ; preds = %28, %25
  %30 = phi ptr [ %27, %25 ], [ null, %28 ]
  br label %31

31:                                               ; preds = %29, %17
  %32 = phi ptr [ %18, %17 ], [ %30, %29 ]
  br label %33

33:                                               ; preds = %31, %11
  %34 = phi ptr [ null, %11 ], [ %32, %31 ]
  store ptr %34, ptr %7, align 8, !tbaa !19
  %35 = load ptr, ptr %7, align 8, !tbaa !19
  %36 = icmp eq ptr %35, null
  br i1 %36, label %37, label %38

37:                                               ; preds = %33
  store i32 0, ptr %3, align 4
  store i32 1, ptr %8, align 4
  br label %53

38:                                               ; preds = %33
  %39 = load ptr, ptr %5, align 8, !tbaa !77
  %40 = icmp eq ptr %39, null
  br i1 %40, label %41, label %42

41:                                               ; preds = %38
  call void @ERR_new()
  call void @ERR_set_debug(ptr noundef @.str, i32 noundef 162, ptr noundef @__func__.SSL_use_PrivateKey)
  call void (i32, i32, ptr, ...) @ERR_set_error(i32 noundef 20, i32 noundef 786690, ptr noundef null)
  store i32 0, ptr %3, align 4
  store i32 1, ptr %8, align 4
  br label %53

42:                                               ; preds = %38
  %43 = load ptr, ptr %7, align 8, !tbaa !19
  %44 = getelementptr inbounds nuw %struct.ssl_connection_st, ptr %43, i32 0, i32 48
  %45 = load ptr, ptr %44, align 8, !tbaa !22
  %46 = load ptr, ptr %5, align 8, !tbaa !77
  %47 = load ptr, ptr %7, align 8, !tbaa !19
  %48 = getelementptr inbounds nuw %struct.ssl_connection_st, ptr %47, i32 0, i32 0
  %49 = getelementptr inbounds nuw %struct.ssl_st, ptr %48, i32 0, i32 1
  %50 = load ptr, ptr %49, align 8, !tbaa !74
  %51 = call i32 @ssl_set_pkey(ptr noundef %45, ptr noundef %46, ptr noundef %50)
  store i32 %51, ptr %6, align 4, !tbaa !21
  %52 = load i32, ptr %6, align 4, !tbaa !21
  store i32 %52, ptr %3, align 4
  store i32 1, ptr %8, align 4
  br label %53

53:                                               ; preds = %42, %41, %37
  call void @llvm.lifetime.end.p0(i64 8, ptr %7) #6
  call void @llvm.lifetime.end.p0(i64 4, ptr %6) #6
  %54 = load i32, ptr %3, align 4
  ret i32 %54
}

; Function Attrs: nounwind uwtable
define i32 @SSL_use_PrivateKey_file(ptr noundef %0, ptr noundef %1, i32 noundef %2) #0 {
  %4 = alloca i32, align 4
  %5 = alloca ptr, align 8
  %6 = alloca ptr, align 8
  %7 = alloca i32, align 4
  %8 = alloca i32, align 4
  %9 = alloca i32, align 4
  %10 = alloca ptr, align 8
  %11 = alloca ptr, align 8
  %12 = alloca ptr, align 8
  %13 = alloca i32, align 4
  store ptr %0, ptr %5, align 8, !tbaa !3
  store ptr %1, ptr %6, align 8, !tbaa !87
  store i32 %2, ptr %7, align 4, !tbaa !21
  call void @llvm.lifetime.start.p0(i64 4, ptr %8) #6
  call void @llvm.lifetime.start.p0(i64 4, ptr %9) #6
  store i32 0, ptr %9, align 4, !tbaa !21
  call void @llvm.lifetime.start.p0(i64 8, ptr %10) #6
  store ptr null, ptr %10, align 8, !tbaa !88
  call void @llvm.lifetime.start.p0(i64 8, ptr %11) #6
  store ptr null, ptr %11, align 8, !tbaa !77
  %14 = load ptr, ptr %6, align 8, !tbaa !87
  %15 = icmp eq ptr %14, null
  br i1 %15, label %16, label %17

16:                                               ; preds = %3
  call void @ERR_new()
  call void @ERR_set_debug(ptr noundef @.str, i32 noundef 176, ptr noundef @__func__.SSL_use_PrivateKey_file)
  call void (i32, i32, ptr, ...) @ERR_set_error(i32 noundef 20, i32 noundef 786690, ptr noundef null)
  br label %113

17:                                               ; preds = %3
  %18 = call ptr @BIO_s_file()
  %19 = call ptr @BIO_new(ptr noundef %18)
  store ptr %19, ptr %10, align 8, !tbaa !88
  %20 = load ptr, ptr %10, align 8, !tbaa !88
  %21 = icmp eq ptr %20, null
  br i1 %21, label %22, label %23

22:                                               ; preds = %17
  call void @ERR_new()
  call void @ERR_set_debug(ptr noundef @.str, i32 noundef 182, ptr noundef @__func__.SSL_use_PrivateKey_file)
  call void (i32, i32, ptr, ...) @ERR_set_error(i32 noundef 20, i32 noundef 524295, ptr noundef null)
  br label %113

23:                                               ; preds = %17
  %24 = load ptr, ptr %10, align 8, !tbaa !88
  %25 = load ptr, ptr %6, align 8, !tbaa !87
  %26 = call i64 @BIO_ctrl(ptr noundef %24, i32 noundef 108, i64 noundef 3, ptr noundef %25)
  %27 = trunc i64 %26 to i32
  %28 = icmp sle i32 %27, 0
  br i1 %28, label %29, label %30

29:                                               ; preds = %23
  call void @ERR_new()
  call void @ERR_set_debug(ptr noundef @.str, i32 noundef 187, ptr noundef @__func__.SSL_use_PrivateKey_file)
  call void (i32, i32, ptr, ...) @ERR_set_error(i32 noundef 20, i32 noundef 524290, ptr noundef null)
  br label %113

30:                                               ; preds = %23
  %31 = load i32, ptr %7, align 4, !tbaa !21
  %32 = icmp eq i32 %31, 1
  br i1 %32, label %33, label %85

33:                                               ; preds = %30
  call void @llvm.lifetime.start.p0(i64 8, ptr %12) #6
  %34 = load ptr, ptr %5, align 8, !tbaa !3
  %35 = icmp eq ptr %34, null
  br i1 %35, label %36, label %37

36:                                               ; preds = %33
  br label %58

37:                                               ; preds = %33
  %38 = load ptr, ptr %5, align 8, !tbaa !3
  %39 = getelementptr inbounds nuw %struct.ssl_st, ptr %38, i32 0, i32 0
  %40 = load i32, ptr %39, align 8, !tbaa !10
  %41 = icmp eq i32 %40, 0
  br i1 %41, label %42, label %44

42:                                               ; preds = %37
  %43 = load ptr, ptr %5, align 8, !tbaa !3
  br label %56

44:                                               ; preds = %37
  %45 = load ptr, ptr %5, align 8, !tbaa !3
  %46 = getelementptr inbounds nuw %struct.ssl_st, ptr %45, i32 0, i32 0
  %47 = load i32, ptr %46, align 8, !tbaa !10
  %48 = and i32 %47, 128
  %49 = icmp ne i32 %48, 0
  br i1 %49, label %50, label %53

50:                                               ; preds = %44
  %51 = load ptr, ptr %5, align 8, !tbaa !3
  %52 = call ptr @ossl_quic_obj_get0_handshake_layer(ptr noundef %51)
  br label %54

53:                                               ; preds = %44
  br label %54

54:                                               ; preds = %53, %50
  %55 = phi ptr [ %52, %50 ], [ null, %53 ]
  br label %56

56:                                               ; preds = %54, %42
  %57 = phi ptr [ %43, %42 ], [ %55, %54 ]
  br label %58

58:                                               ; preds = %56, %36
  %59 = phi ptr [ null, %36 ], [ %57, %56 ]
  store ptr %59, ptr %12, align 8, !tbaa !19
  %60 = load ptr, ptr %12, align 8, !tbaa !19
  %61 = icmp eq ptr %60, null
  br i1 %61, label %62, label %63

62:                                               ; preds = %58
  store i32 2, ptr %13, align 4
  br label %82

63:                                               ; preds = %58
  store i32 524297, ptr %8, align 4, !tbaa !21
  %64 = load ptr, ptr %10, align 8, !tbaa !88
  %65 = load ptr, ptr %12, align 8, !tbaa !19
  %66 = getelementptr inbounds nuw %struct.ssl_connection_st, ptr %65, i32 0, i32 105
  %67 = load ptr, ptr %66, align 8, !tbaa !105
  %68 = load ptr, ptr %12, align 8, !tbaa !19
  %69 = getelementptr inbounds nuw %struct.ssl_connection_st, ptr %68, i32 0, i32 106
  %70 = load ptr, ptr %69, align 8, !tbaa !106
  %71 = load ptr, ptr %5, align 8, !tbaa !3
  %72 = getelementptr inbounds nuw %struct.ssl_st, ptr %71, i32 0, i32 1
  %73 = load ptr, ptr %72, align 8, !tbaa !89
  %74 = getelementptr inbounds nuw %struct.ssl_ctx_st, ptr %73, i32 0, i32 0
  %75 = load ptr, ptr %74, align 8, !tbaa !90
  %76 = load ptr, ptr %5, align 8, !tbaa !3
  %77 = getelementptr inbounds nuw %struct.ssl_st, ptr %76, i32 0, i32 1
  %78 = load ptr, ptr %77, align 8, !tbaa !89
  %79 = getelementptr inbounds nuw %struct.ssl_ctx_st, ptr %78, i32 0, i32 89
  %80 = load ptr, ptr %79, align 8, !tbaa !104
  %81 = call ptr @PEM_read_bio_PrivateKey_ex(ptr noundef %64, ptr noundef null, ptr noundef %67, ptr noundef %70, ptr noundef %75, ptr noundef %80)
  store ptr %81, ptr %11, align 8, !tbaa !77
  store i32 0, ptr %13, align 4
  br label %82

82:                                               ; preds = %62, %63
  call void @llvm.lifetime.end.p0(i64 8, ptr %12) #6
  %83 = load i32, ptr %13, align 4
  switch i32 %83, label %117 [
    i32 0, label %84
    i32 2, label %113
  ]

84:                                               ; preds = %82
  br label %103

85:                                               ; preds = %30
  %86 = load i32, ptr %7, align 4, !tbaa !21
  %87 = icmp eq i32 %86, 2
  br i1 %87, label %88, label %101

88:                                               ; preds = %85
  store i32 524301, ptr %8, align 4, !tbaa !21
  %89 = load ptr, ptr %10, align 8, !tbaa !88
  %90 = load ptr, ptr %5, align 8, !tbaa !3
  %91 = getelementptr inbounds nuw %struct.ssl_st, ptr %90, i32 0, i32 1
  %92 = load ptr, ptr %91, align 8, !tbaa !89
  %93 = getelementptr inbounds nuw %struct.ssl_ctx_st, ptr %92, i32 0, i32 0
  %94 = load ptr, ptr %93, align 8, !tbaa !90
  %95 = load ptr, ptr %5, align 8, !tbaa !3
  %96 = getelementptr inbounds nuw %struct.ssl_st, ptr %95, i32 0, i32 1
  %97 = load ptr, ptr %96, align 8, !tbaa !89
  %98 = getelementptr inbounds nuw %struct.ssl_ctx_st, ptr %97, i32 0, i32 89
  %99 = load ptr, ptr %98, align 8, !tbaa !104
  %100 = call ptr @d2i_PrivateKey_ex_bio(ptr noundef %89, ptr noundef null, ptr noundef %94, ptr noundef %99)
  store ptr %100, ptr %11, align 8, !tbaa !77
  br label %102

101:                                              ; preds = %85
  call void @ERR_new()
  call void @ERR_set_debug(ptr noundef @.str, i32 noundef 207, ptr noundef @__func__.SSL_use_PrivateKey_file)
  call void (i32, i32, ptr, ...) @ERR_set_error(i32 noundef 20, i32 noundef 124, ptr noundef null)
  br label %113

102:                                              ; preds = %88
  br label %103

103:                                              ; preds = %102, %84
  %104 = load ptr, ptr %11, align 8, !tbaa !77
  %105 = icmp eq ptr %104, null
  br i1 %105, label %106, label %108

106:                                              ; preds = %103
  call void @ERR_new()
  call void @ERR_set_debug(ptr noundef @.str, i32 noundef 211, ptr noundef @__func__.SSL_use_PrivateKey_file)
  %107 = load i32, ptr %8, align 4, !tbaa !21
  call void (i32, i32, ptr, ...) @ERR_set_error(i32 noundef 20, i32 noundef %107, ptr noundef null)
  br label %113

108:                                              ; preds = %103
  %109 = load ptr, ptr %5, align 8, !tbaa !3
  %110 = load ptr, ptr %11, align 8, !tbaa !77
  %111 = call i32 @SSL_use_PrivateKey(ptr noundef %109, ptr noundef %110)
  store i32 %111, ptr %9, align 4, !tbaa !21
  %112 = load ptr, ptr %11, align 8, !tbaa !77
  call void @EVP_PKEY_free(ptr noundef %112)
  br label %113

113:                                              ; preds = %108, %82, %106, %101, %29, %22, %16
  %114 = load ptr, ptr %10, align 8, !tbaa !88
  %115 = call i32 @BIO_free(ptr noundef %114)
  %116 = load i32, ptr %9, align 4, !tbaa !21
  store i32 %116, ptr %4, align 4
  store i32 1, ptr %13, align 4
  br label %117

117:                                              ; preds = %113, %82
  call void @llvm.lifetime.end.p0(i64 8, ptr %11) #6
  call void @llvm.lifetime.end.p0(i64 8, ptr %10) #6
  call void @llvm.lifetime.end.p0(i64 4, ptr %9) #6
  call void @llvm.lifetime.end.p0(i64 4, ptr %8) #6
  %118 = load i32, ptr %4, align 4
  ret i32 %118
}