; Function Attrs: nounwind uwtable
define range(i32 0, 2) i32 @SSL_use_PrivateKey_file(ptr noundef %0, ptr noundef %1, i32 noundef %2) local_unnamed_addr #0 {
  %4 = icmp eq ptr %1, null
  br i1 %4, label %5, label %6

5:                                                ; preds = %3
  tail call void @ERR_new() #6
  tail call void @ERR_set_debug(ptr noundef nonnull @.str, i32 noundef 176, ptr noundef nonnull @__func__.SSL_use_PrivateKey_file) #6
  tail call void (i32, i32, ptr, ...) @ERR_set_error(i32 noundef 20, i32 noundef 786690, ptr noundef null) #6
  br label %.thread44

6:                                                ; preds = %3
  %7 = tail call ptr @BIO_s_file() #6
  %8 = tail call ptr @BIO_new(ptr noundef %7) #6
  %9 = icmp eq ptr %8, null
  br i1 %9, label %10, label %11

10:                                               ; preds = %6
  tail call void @ERR_new() #6
  tail call void @ERR_set_debug(ptr noundef nonnull @.str, i32 noundef 182, ptr noundef nonnull @__func__.SSL_use_PrivateKey_file) #6
  tail call void (i32, i32, ptr, ...) @ERR_set_error(i32 noundef 20, i32 noundef 524295, ptr noundef null) #6
  br label %.thread44

11:                                               ; preds = %6
  %12 = tail call i64 @BIO_ctrl(ptr noundef nonnull %8, i32 noundef 108, i64 noundef 3, ptr noundef nonnull %1) #6
  %13 = trunc i64 %12 to i32
  %14 = icmp slt i32 %13, 1
  br i1 %14, label %15, label %16

15:                                               ; preds = %11
  tail call void @ERR_new() #6
  tail call void @ERR_set_debug(ptr noundef nonnull @.str, i32 noundef 187, ptr noundef nonnull @__func__.SSL_use_PrivateKey_file) #6
  tail call void (i32, i32, ptr, ...) @ERR_set_error(i32 noundef 20, i32 noundef 524290, ptr noundef null) #6
  br label %.thread44

16:                                               ; preds = %11
  switch i32 %2, label %45 [
    i32 1, label %17
    i32 2, label %38
  ]

17:                                               ; preds = %16
  %18 = icmp eq ptr %0, null
  br i1 %18, label %.thread44, label %19

19:                                               ; preds = %17
  %20 = load i32, ptr %0, align 8, !tbaa !3
  %21 = icmp eq i32 %20, 0
  br i1 %21, label %.thread42, label %22

22:                                               ; preds = %19
  %23 = and i32 %20, 128
  %.not = icmp eq i32 %23, 0
  br i1 %.not, label %.thread44, label %24

24:                                               ; preds = %22
  %25 = tail call ptr @ossl_quic_obj_get0_handshake_layer(ptr noundef nonnull %0) #6
  %26 = icmp eq ptr %25, null
  br i1 %26, label %.thread44, label %.thread42

.thread42:                                        ; preds = %19, %24
  %27 = phi ptr [ %25, %24 ], [ %0, %19 ]
  %28 = getelementptr inbounds nuw i8, ptr %27, i64 5400
  %29 = load ptr, ptr %28, align 8, !tbaa !97
  %30 = getelementptr inbounds nuw i8, ptr %27, i64 5408
  %31 = load ptr, ptr %30, align 8, !tbaa !98
  %32 = getelementptr inbounds nuw i8, ptr %0, i64 8
  %33 = load ptr, ptr %32, align 8, !tbaa !81
  %34 = load ptr, ptr %33, align 8, !tbaa !82
  %35 = getelementptr inbounds nuw i8, ptr %33, i64 1152
  %36 = load ptr, ptr %35, align 8, !tbaa !96
  %37 = tail call ptr @PEM_read_bio_PrivateKey_ex(ptr noundef nonnull %8, ptr noundef null, ptr noundef %29, ptr noundef %31, ptr noundef %34, ptr noundef %36) #6
  br label %46

38:                                               ; preds = %16
  %39 = getelementptr inbounds nuw i8, ptr %0, i64 8
  %40 = load ptr, ptr %39, align 8, !tbaa !81
  %41 = load ptr, ptr %40, align 8, !tbaa !82
  %42 = getelementptr inbounds nuw i8, ptr %40, i64 1152
  %43 = load ptr, ptr %42, align 8, !tbaa !96
  %44 = tail call ptr @d2i_PrivateKey_ex_bio(ptr noundef nonnull %8, ptr noundef null, ptr noundef %41, ptr noundef %43) #6
  br label %46

45:                                               ; preds = %16
  tail call void @ERR_new() #6
  tail call void @ERR_set_debug(ptr noundef nonnull @.str, i32 noundef 207, ptr noundef nonnull @__func__.SSL_use_PrivateKey_file) #6
  tail call void (i32, i32, ptr, ...) @ERR_set_error(i32 noundef 20, i32 noundef 124, ptr noundef null) #6
  br label %.thread44

46:                                               ; preds = %.thread42, %38
  %.133 = phi i32 [ 524297, %.thread42 ], [ 524301, %38 ]
  %.1 = phi ptr [ %37, %.thread42 ], [ %44, %38 ]
  %47 = icmp eq ptr %.1, null
  br i1 %47, label %48, label %49

48:                                               ; preds = %46
  tail call void @ERR_new() #6
  tail call void @ERR_set_debug(ptr noundef nonnull @.str, i32 noundef 211, ptr noundef nonnull @__func__.SSL_use_PrivateKey_file) #6
  tail call void (i32, i32, ptr, ...) @ERR_set_error(i32 noundef 20, i32 noundef %.133, ptr noundef null) #6
  br label %.thread44

49:                                               ; preds = %46
  %50 = load i32, ptr %0, align 8, !tbaa !3
  %51 = icmp eq i32 %50, 0
  br i1 %51, label %.thread15.i, label %52

52:                                               ; preds = %49
  %53 = and i32 %50, 128
  %.not.i = icmp eq i32 %53, 0
  br i1 %.not.i, label %SSL_use_PrivateKey.exit, label %54

54:                                               ; preds = %52
  %55 = tail call ptr @ossl_quic_obj_get0_handshake_layer(ptr noundef nonnull %0) #6
  %56 = icmp eq ptr %55, null
  br i1 %56, label %SSL_use_PrivateKey.exit, label %.thread15.i

.thread15.i:                                      ; preds = %49, %54
  %57 = phi ptr [ %55, %54 ], [ %0, %49 ]
  %58 = getelementptr inbounds nuw i8, ptr %57, i64 2176
  %59 = load ptr, ptr %58, align 8, !tbaa !15
  %60 = getelementptr inbounds nuw i8, ptr %57, i64 8
  %61 = load ptr, ptr %60, align 8, !tbaa !70
  %62 = tail call fastcc i32 @ssl_set_pkey(ptr noundef %59, ptr noundef nonnull %.1, ptr noundef %61)
  br label %SSL_use_PrivateKey.exit

SSL_use_PrivateKey.exit:                          ; preds = %52, %54, %.thread15.i
  %.0.i = phi i32 [ %62, %.thread15.i ], [ 0, %54 ], [ 0, %52 ]
  tail call void @EVP_PKEY_free(ptr noundef nonnull %.1) #6
  br label %.thread44

.thread44:                                        ; preds = %22, %17, %24, %SSL_use_PrivateKey.exit, %48, %45, %15, %10, %5
  %.031 = phi i32 [ 0, %5 ], [ 0, %10 ], [ 0, %15 ], [ 0, %48 ], [ %.0.i, %SSL_use_PrivateKey.exit ], [ 0, %45 ], [ 0, %24 ], [ 0, %17 ], [ 0, %22 ]
  %.030 = phi ptr [ null, %5 ], [ null, %10 ], [ %8, %15 ], [ %8, %48 ], [ %8, %SSL_use_PrivateKey.exit ], [ %8, %45 ], [ %8, %24 ], [ %8, %17 ], [ %8, %22 ]
  %63 = tail call i32 @BIO_free(ptr noundef %.030) #6
  ret i32 %.031
}